target datalayout = "e-m:e-p270:32:32-p271:32:32-p272:64:64-i64:64-i128:128-f80:128-n8:16:32:64-S128"
target triple = "x86_64-pc-linux-gnu"

%struct.Vec_Ptr_t_ = type { i32, i32, ptr }

; Function Attrs: inlinehint nounwind uwtable
define internal void @Vec_PtrRemove(ptr noundef %0, ptr noundef %1) #3 {
  %3 = alloca ptr, align 8
  %4 = alloca ptr, align 8
  %5 = alloca i32, align 4
  store ptr %0, ptr %3, align 8, !tbaa !20
  store ptr %1, ptr %4, align 8, !tbaa !95
  call void @llvm.lifetime.start.p0(i64 4, ptr %5) #9
  %6 = load ptr, ptr %3, align 8, !tbaa !20
  %7 = getelementptr inbounds nuw %struct.Vec_Ptr_t_, ptr %6, i32 0, i32 1
  %8 = load i32, ptr %7, align 4, !tbaa !74
  %9 = sub nsw i32 %8, 1
  store i32 %9, ptr %5, align 4, !tbaa !8
  br label %10

10:                                               ; preds = %25, %2
  %11 = load i32, ptr %5, align 4, !tbaa !8
  %12 = icmp sge i32 %11, 0
  br i1 %12, label %13, label %28

13:                                               ; preds = %10
  %14 = load ptr, ptr %3, align 8, !tbaa !20
  %15 = getelementptr inbounds nuw %struct.Vec_Ptr_t_, ptr %14, i32 0, i32 2
  %16 = load ptr, ptr %15, align 8, !tbaa !93
  %17 = load i32, ptr %5, align 4, !tbaa !8
  %18 = sext i32 %17 to i64
  %19 = getelementptr inbounds ptr, ptr %16, i64 %18
  %20 = load ptr, ptr %19, align 8, !tbaa !95
  %21 = load ptr, ptr %4, align 8, !tbaa !95
  %22 = icmp eq ptr %20, %21
  br i1 %22, label %23, label %24

23:                                               ; preds = %13
  br label %28

24:                                               ; preds = %13
  br label %25

25:                                               ; preds = %24
  %26 = load i32, ptr %5, align 4, !tbaa !8
  %27 = add nsw i32 %26, -1
  store i32 %27, ptr %5, align 4, !tbaa !8
  br label %10, !llvm.loop !110

28:                                               ; preds = %23, %10
  %29 = load i32, ptr %5, align 4, !tbaa !8
  %30 = add nsw i32 %29, 1
  store i32 %30, ptr %5, align 4, !tbaa !8
  br label %31

31:                                               ; preds = %52, %28
  %32 = load i32, ptr %5, align 4, !tbaa !8
  %33 = load ptr, ptr %3, align 8, !tbaa !20
  %34 = getelementptr inbounds nuw %struct.Vec_Ptr_t_, ptr %33, i32 0, i32 1
  %35 = load i32, ptr %34, align 4, !tbaa !74
  %36 = icmp slt i32 %32, %35
  br i1 %36, label %37, label %55

37:                                               ; preds = %31
  %38 = load ptr, ptr %3, align 8, !tbaa !20
  %39 = getelementptr inbounds nuw %struct.Vec_Ptr_t_, ptr %38, i32 0, i32 2
  %40 = load ptr, ptr %39, align 8, !tbaa !93
  %41 = load i32, ptr %5, align 4, !tbaa !8
  %42 = sext i32 %41 to i64
  %43 = getelementptr inbounds ptr, ptr %40, i64 %42
  %44 = load ptr, ptr %43, align 8, !tbaa !95
  %45 = load ptr, ptr %3, align 8, !tbaa !20
  %46 = getelementptr inbounds nuw %struct.Vec_Ptr_t_, ptr %45, i32 0, i32 2
  %47 = load ptr, ptr %46, align 8, !tbaa !93
  %48 = load i32, ptr %5, align 4, !tbaa !8
  %49 = sub nsw i32 %48, 1
  %50 = sext i32 %49 to i64
  %51 = getelementptr inbounds ptr, ptr %47, i64 %50
  store ptr %44, ptr %51, align 8, !tbaa !95
  br label %52

52:                                               ; preds = %37
  %53 = load i32, ptr %5, align 4, !tbaa !8
  %54 = add nsw i32 %53, 1
  store i32 %54, ptr %5, align 4, !tbaa !8
  br label %31, !llvm.loop !111

55:                                               ; preds = %31
  %56 = load ptr, ptr %3, align 8, !tbaa !20
  %57 = getelementptr inbounds nuw %struct.Vec_Ptr_t_, ptr %56, i32 0, i32 1
  %58 = load i32, ptr %57, align 4, !tbaa !74
  %59 = add nsw i32 %58, -1
  store i32 %59, ptr %57, align 4, !tbaa !74
  call void @llvm.lifetime.end.p0(i64 4, ptr %5) #9
  ret void
}

; Function Attrs: inlinehint nounwind uwtable
define internal ptr @Vec_PtrEntry(ptr noundef %0, i32 noundef %1) #3 {
  %3 = alloca ptr, align 8
  %4 = alloca i32, align 4
  store ptr %0, ptr %3, align 8, !tbaa !20
  store i32 %1, ptr %4, align 4, !tbaa !8
  %5 = load ptr, ptr %3, align 8, !tbaa !20
  %6 = getelementptr inbounds nuw %struct.Vec_Ptr_t_, ptr %5, i32 0, i32 2
  %7 = load ptr, ptr %6, align 8, !tbaa !93
  %8 = load i32, ptr %4, align 4, !tbaa !8
  %9 = sext i32 %8 to i64
  %10 = getelementptr inbounds ptr, ptr %7, i64 %9
  %11 = load ptr, ptr %10, align 8, !tbaa !95
  ret ptr %11
}

; Function Attrs: nounwind uwtable
define void @Abc_NodeLeavesRemove(ptr noundef %0, i32 noundef %1, i32 noundef %2) #0 {
  %4 = alloca ptr, align 8
  %5 = alloca i32, align 4
  %6 = alloca i32, align 4
  %7 = alloca i32, align 4
  store ptr %0, ptr %4, align 8, !tbaa !20
  store i32 %1, ptr %5, align 4, !tbaa !8
  store i32 %2, ptr %6, align 4, !tbaa !8
  call void @llvm.lifetime.start.p0(i64 4, ptr %7) #9
  %8 = load i32, ptr %6, align 4, !tbaa !8
  %9 = sub nsw i32 %8, 1
  store i32 %9, ptr %7, align 4, !tbaa !8
  br label %10

10:                                               ; preds = %25, %3
  %11 = load i32, ptr %7, align 4, !tbaa !8
  %12 = icmp sge i32 %11, 0
  br i1 %12, label %13, label %28

13:                                               ; preds = %10
  %14 = load i32, ptr %5, align 4, !tbaa !8
  %15 = load i32, ptr %7, align 4, !tbaa !8
  %16 = shl i32 1, %15
  %17 = and i32 %14, %16
  %18 = icmp ne i32 %17, 0
  br i1 %18, label %19, label %24

19:                                               ; preds = %13
  %20 = load ptr, ptr %4, align 8, !tbaa !20
  %21 = load ptr, ptr %4, align 8, !tbaa !20
  %22 = load i32, ptr %7, align 4, !tbaa !8
  %23 = call ptr @Vec_PtrEntry(ptr noundef %21, i32 noundef %22)
  call void @Vec_PtrRemove(ptr noundef %20, ptr noundef %23)
  br label %24

24:                                               ; preds = %19, %13
  br label %25

25:                                               ; preds = %24
  %26 = load i32, ptr %7, align 4, !tbaa !8
  %27 = add nsw i32 %26, -1
  store i32 %27, ptr %7, align 4, !tbaa !8
  br label %10, !llvm.loop !109

28:                                               ; preds = %10
  call void @llvm.lifetime.end.p0(i64 4, ptr %7) #9
  ret void
}