; Function Attrs: nofree norecurse nosync nounwind memory(readwrite, inaccessiblemem: none) uwtable
define void @Abc_NodeLeavesRemove(ptr noundef captures(none) %0, i32 noundef %1, i32 noundef %2) local_unnamed_addr #4 {
  %4 = icmp sgt i32 %2, 0
  br i1 %4, label %.lr.ph, label %._crit_edge

.lr.ph:                                           ; preds = %3
  %5 = getelementptr i8, ptr %0, i64 8
  %6 = getelementptr inbounds nuw i8, ptr %0, i64 4
  %7 = zext nneg i32 %2 to i64
  br label %8

8:                                                ; preds = %.lr.ph, %34
  %indvars.iv = phi i64 [ %7, %.lr.ph ], [ %indvars.iv.next, %34 ]
  %indvars.iv.next = add nsw i64 %indvars.iv, -1
  %9 = trunc nuw nsw i64 %indvars.iv.next to i32
  %10 = shl nuw i32 1, %9
  %11 = and i32 %10, %1
  %.not = icmp eq i32 %11, 0
  br i1 %.not, label %34, label %12

12:                                               ; preds = %8
  %.val = load ptr, ptr %5, align 8, !tbaa !26
  %13 = getelementptr inbounds nuw ptr, ptr %.val, i64 %indvars.iv.next
  %14 = load ptr, ptr %13, align 8, !tbaa !27
  %15 = load i32, ptr %6, align 4, !tbaa !24
  %16 = zext i32 %15 to i64
  %smin.i = tail call i32 @llvm.smin.i32(i32 %15, i32 0)
  br label %17

17:                                               ; preds = %20, %12
  %indvars.iv.i = phi i64 [ %21, %20 ], [ %16, %12 ]
  %18 = trunc nuw i64 %indvars.iv.i to i32
  %19 = icmp sgt i32 %18, 0
  br i1 %19, label %20, label %25

20:                                               ; preds = %17
  %21 = add nsw i64 %indvars.iv.i, -1
  %22 = getelementptr inbounds nuw ptr, ptr %.val, i64 %21
  %23 = load ptr, ptr %22, align 8, !tbaa !27
  %24 = icmp eq ptr %23, %14
  br i1 %24, label %25, label %17, !llvm.loop !74

25:                                               ; preds = %20, %17
  %.0.in.lcssa.i = phi i32 [ %18, %20 ], [ %smin.i, %17 ]
  %26 = icmp slt i32 %.0.in.lcssa.i, %15
  br i1 %26, label %.lr.ph.i, label %Vec_PtrRemove.exit

.lr.ph.i:                                         ; preds = %25
  %27 = sext i32 %.0.in.lcssa.i to i64
  %wide.trip.count.i = sext i32 %15 to i64
  br label %28

28:                                               ; preds = %28, %.lr.ph.i
  %indvars.iv18.i = phi i64 [ %27, %.lr.ph.i ], [ %indvars.iv.next19.i, %28 ]
  %29 = load ptr, ptr %5, align 8, !tbaa !26
  %30 = getelementptr inbounds ptr, ptr %29, i64 %indvars.iv18.i
  %31 = load ptr, ptr %30, align 8, !tbaa !27
  %32 = getelementptr i8, ptr %30, i64 -8
  store ptr %31, ptr %32, align 8, !tbaa !27
  %indvars.iv.next19.i = add nsw i64 %indvars.iv18.i, 1
  %exitcond.not.i = icmp eq i64 %indvars.iv.next19.i, %wide.trip.count.i
  br i1 %exitcond.not.i, label %Vec_PtrRemove.exit, label %28, !llvm.loop !75

Vec_PtrRemove.exit:                               ; preds = %28, %25
  %33 = add nsw i32 %15, -1
  store i32 %33, ptr %6, align 4, !tbaa !24
  br label %34

34:                                               ; preds = %8, %Vec_PtrRemove.exit
  %35 = icmp sgt i64 %indvars.iv, 1
  br i1 %35, label %8, label %._crit_edge, !llvm.loop !76

._crit_edge:                                      ; preds = %34, %3
  ret void
}